-----BEGIN PRIVATE KEY-----
MIIEvAIBADANBgkqhkiG9w0BAQEFAASCBKYwggSiAgEAAoIBAQC9iIQ/fFHIxGfr
sG9iXKSAUQhrXJSWFc4Si9GOBcn5z7qPGxxqa+xVgiBaoKIsAflNgJAjC63URMIJ
S4O7tEBgjvAI89GKbVNrwemUSQoXA9O7f3NW0D1+LWLpW5JaUdxw18NF2UlgOZ42
TiE1o6i2KHzcmcDR6Mprt7xBMiYeynwdMF+BWx3h7ogxtNz5boiWdkSx7ix4Pala
lpVj32gB1C1FvhoLBSoU8C0NUFI2kqwlv/J/RybV0CuQ7+FJeBi6rskAzs8otKGM
qaSDiP4G7qlW+tF9khoNwyQq6A94/lbnaAkGPO95irNnm9eG0NnDJNJdTNRWA/6g
eGYkn2MxAgMBAAECggEAXFGMqSey5mnUfJbaCj05206dHT5hGaHRWHNGRTlIoieu
pVn9Q1ECMrxJahtoIqtrdXazvn5H02cSZFil993apa25+YJZhGWwBoLTdWkGQyOY
FHIGCjkwWq9cyHHUHa5WA5j1AqbN+NLX33e68VegK+oYt5Mkupn7TvCV/+Ofccs0
Tt0T91RUVPlVoy8njWCIkLkPHZZicJvj9dJq1caY3iZ+YVZvr4vp/5V+/8OtzD4N
46XzWDl1dbvp9oUOzwakcQa11Y3DBtZb9mGB2wB9MTg6ByGSaTqXpKEb/SESh2ua
lFweboyxbJ+9T7CWVxfPbO7BrkDqyIBHDwocsf3ZiQKBgQDmdlEbnHX6IFXTlR3o
UeXWBSyZBfm5OC1L86Mdynv8svZlCFkK58XpARndyqm/EKlHfMF7Zo1NvbImPywm
fGl0c8UWO07WIyCcVLnd6XpacXTzvpY+m6rhKCBr7shsj7+iSIDTbqqrQ3Qa5/iD
vyU92lfOloihN/zmpCgnwlx8jwKBgQDSiSP8b8qQy6v2rCxet3nk1wt45xxveRzC
LZebI+gSyEV4fqrWR3uMf1G1sSN5iMch9LdCfKi8oZwCoyu7icL1HeAqCTx5vyvn
eeCqQbHudOu0irb4Yy+yKKgvHV49XRghq7qVDSk16O5OVqB42U/oy3rbitLRqx14
xV7C3a2EPwKBgAE5R5z567Z0TYBeHlaJeMr2JBJ78aOGJNduZ8NUu+vPl3dZ3/8q
0+Y010pSNSyKjhuPEgfxt3ZeN3/0feuGZZj0tGs1zWldrmKmIIaJItkwGQriTDHw
6atgZyurjOzmpoHaGLUGtWlLZmZuLOemMDBv5F94dSlF/tXKsVvksFEJAoGAKg3w
3UTrXp8Ae6aKumTF+XsnNIBdwrqbjwISbY/vlIjir54FvAXNXRQ1myiGIIm81UCP
tr0163AQvMohOzXadqIAHAV6Sgtw1q0Wvoue4jYCuy6WO+l8JodOiRLBt1o4Lsmh
3JIjcDxWFdnh9iHaf3Ld2KrTT8Rxf6VVN3GWbnsCgYBI2/uvKq9xON+yLVjji6wf
C0Pf1fUAWE+Bo7eIYDRfvC+dELzzMO3vKqpoGoBB+yp5qADBbRsxfUYRMm7Esu0X
cqew3WmoB9SjixdL6RAd6fN74XjAbu2q8KPNCM6PSQ2fJkk2PiGRDUpB5LpLV9xf
jQcvGEursgeYjIwPJZRxUw==
-----END PRIVATE KEY-----
Certificate:
    Data:
        Version: 3 (0x2)
        Serial Number:
            b0:3e:14:c0:94:db:c9:ed
    Signature Algorithm: sha512WithRSAEncryption
        Issuer: C=CN, ST=FJ, O=DBA, OU=dba, CN=DBA_CA/emailAddress=DBA_CA@dba.com
        Validity
            Not Before: Apr 30 05:48:19 2021 GMT
            Not After : Apr 25 05:48:19 2041 GMT
        Subject: C=CN, ST=FJ, L=FZ, O=DBA, OU=dba, CN=DBA_SERVER/emailAddress=DBA_SERVER@dba.cn
        Subject Public Key Info:
            Public Key Algorithm: rsaEncryption
                Public-Key: (2048 bit)
                Modulus:
                    00:bd:88:84:3f:7c:51:c8:c4:67:eb:b0:6f:62:5c:
                    a4:80:51:08:6b:5c:94:96:15:ce:12:8b:d1:8e:05:
                    c9:f9:cf:ba:8f:1b:1c:6a:6b:ec:55:82:20:5a:a0:
                    a2:2c:01:f9:4d:80:90:23:0b:ad:d4:44:c2:09:4b:
                    83:bb:b4:40:60:8e:f0:08:f3:d1:8a:6d:53:6b:c1:
                    e9:94:49:0a:17:03:d3:bb:7f:73:56:d0:3d:7e:2d:
                    62:e9:5b:92:5a:51:dc:70:d7:c3:45:d9:49:60:39:
                    9e:36:4e:21:35:a3:a8:b6:28:7c:dc:99:c0:d1:e8:
                    ca:6b:b7:bc:41:32:26:1e:ca:7c:1d:30:5f:81:5b:
                    1d:e1:ee:88:31:b4:dc:f9:6e:88:96:76:44:b1:ee:
                    2c:78:3d:a9:5a:96:95:63:df:68:01:d4:2d:45:be:
                    1a:0b:05:2a:14:f0:2d:0d:50:52:36:92:ac:25:bf:
                    f2:7f:47:26:d5:d0:2b:90:ef:e1:49:78:18:ba:ae:
                    c9:00:ce:cf:28:b4:a1:8c:a9:a4:83:88:fe:06:ee:
                    a9:56:fa:d1:7d:92:1a:0d:c3:24:2a:e8:0f:78:fe:
                    56:e7:68:09:06:3c:ef:79:8a:b3:67:9b:d7:86:d0:
                    d9:c3:24:d2:5d:4c:d4:56:03:fe:a0:78:66:24:9f:
                    63:31
                Exponent: 65537 (0x10001)
        X509v3 extensions:
            X509v3 Basic Constraints: 
                CA:FALSE
            Netscape Cert Type: 
                SSL Server
            Netscape Comment: 
                DBA Server Certificate
            X509v3 Subject Key Identifier: 
                EF:D5:46:76:55:4D:7A:88:B4:23:37:D2:B9:44:BF:34:AD:0E:F4:EE
            X509v3 Authority Key Identifier: 
                keyid:B5:05:1C:51:F9:3D:47:96:B1:C3:BD:31:4B:92:67:73:B7:3C:02:29
                DirName:/C=CN/ST=FJ/O=DBA/OU=dba/CN=DBA_CA/emailAddress=DBA_CA@dba.com
                serial:B0:3E:14:C0:94:DB:C9:EC

            X509v3 Key Usage: 
                Digital Signature, Key Encipherment
            X509v3 Extended Key Usage: 
                TLS Web Server Authentication
    Signature Algorithm: sha512WithRSAEncryption
         ba:2c:b7:f2:91:cc:b4:30:7b:ba:ff:3d:5c:22:d9:90:61:b2:
         a8:23:2a:35:34:22:57:72:7a:5e:96:91:7e:97:de:c7:1f:4e:
         ef:45:70:e0:01:f3:4d:cc:d8:4b:0d:21:b0:43:b9:fe:f6:96:
         cf:04:23:5d:c5:cb:a6:36:a2:2c:69:15:47:34:8d:51:e9:66:
         14:0f:30:1b:6a:ff:09:ac:54:36:9b:fb:f3:57:39:58:ae:11:
         5c:d2:c7:12:41:48:4c:9d:74:dd:3b:e1:02:1c:93:39:78:64:
         4f:4d:5e:bd:e6:ae:5a:3d:82:86:ad:17:d3:5b:6b:f2:84:8c:
         0b:1c:00:ef:d4:68:24:4f:c6:76:b0:6f:bb:1c:2e:ad:02:4e:
         c6:01:af:8a:f7:7b:9a:90:a6:d1:bc:bd:dc:1e:d4:f4:63:8a:
         1d:f5:78:78:ac:aa:c1:3b:9f:1f:8b:f4:16:69:73:11:a3:aa:
         9a:fe:2c:39:16:8e:9b:5d:18:27:a3:b3:63:3d:32:da:b7:63:
         14:49:5a:c3:11:33:fc:49:a2:40:08:6e:53:b7:6d:19:82:78:
         eb:39:e7:f3:df:99:02:31:5e:b0:6a:a4:c4:24:ca:1c:b3:79:
         f2:62:84:cf:ab:71:13:9f:0a:07:53:40:10:48:51:22:dd:5f:
         f1:40:2a:49
-----BEGIN CERTIFICATE-----
MIIEijCCA3KgAwIBAgIJALA+FMCU28ntMA0GCSqGSIb3DQEBDQUAMGYxCzAJBgNV
BAYTAkNOMQswCQYDVQQIDAJGSjEMMAoGA1UECgwDREJBMQwwCgYDVQQLDANkYmEx
DzANBgNVBAMMBkRCQV9DQTEdMBsGCSqGSIb3DQEJARYOREJBX0NBQGRiYS5jb20w
HhcNMjEwNDMwMDU0ODE5WhcNNDEwNDI1MDU0ODE5WjB6MQswCQYDVQQGEwJDTjEL
MAkGA1UECAwCRkoxCzAJBgNVBAcMAkZaMQwwCgYDVQQKDANEQkExDDAKBgNVBAsM
A2RiYTETMBEGA1UEAwwKREJBX1NFUlZFUjEgMB4GCSqGSIb3DQEJARYRREJBX1NF
UlZFUkBkYmEuY24wggEiMA0GCSqGSIb3DQEBAQUAA4IBDwAwggEKAoIBAQC9iIQ/
fFHIxGfrsG9iXKSAUQhrXJSWFc4Si9GOBcn5z7qPGxxqa+xVgiBaoKIsAflNgJAj
C63URMIJS4O7tEBgjvAI89GKbVNrwemUSQoXA9O7f3NW0D1+LWLpW5JaUdxw18NF
2UlgOZ42TiE1o6i2KHzcmcDR6Mprt7xBMiYeynwdMF+BWx3h7ogxtNz5boiWdkSx
7ix4PalalpVj32gB1C1FvhoLBSoU8C0NUFI2kqwlv/J/RybV0CuQ7+FJeBi6rskA
zs8otKGMqaSDiP4G7qlW+tF9khoNwyQq6A94/lbnaAkGPO95irNnm9eG0NnDJNJd
TNRWA/6geGYkn2MxAgMBAAGjggElMIIBITAJBgNVHRMEAjAAMBEGCWCGSAGG+EIB
AQQEAwIGQDAlBglghkgBhvhCAQ0EGBYWREJBIFNlcnZlciBDZXJ0aWZpY2F0ZTAd
BgNVHQ4EFgQU79VGdlVNeoi0IzfSuUS/NK0O9O4wgZgGA1UdIwSBkDCBjYAUtQUc
Ufk9R5axw70xS5Jnc7c8AimhaqRoMGYxCzAJBgNVBAYTAkNOMQswCQYDVQQIDAJG
SjEMMAoGA1UECgwDREJBMQwwCgYDVQQLDANkYmExDzANBgNVBAMMBkRCQV9DQTEd
MBsGCSqGSIb3DQEJARYOREJBX0NBQGRiYS5jb22CCQCwPhTAlNvJ7DALBgNVHQ8E
BAMCBaAwEwYDVR0lBAwwCgYIKwYBBQUHAwEwDQYJKoZIhvcNAQENBQADggEBALos
t/KRzLQwe7r/PVwi2ZBhsqgjKjU0Ildyel6WkX6X3scfTu9FcOAB803M2EsNIbBD
uf72ls8EI13Fy6Y2oixpFUc0jVHpZhQPMBtq/wmsVDab+/NXOViuEVzSxxJBSEyd
dN074QIckzl4ZE9NXr3mrlo9goatF9Nba/KEjAscAO/UaCRPxnawb7scLq0CTsYB
r4r3e5qQptG8vdwe1PRjih31eHisqsE7nx+L9BZpcxGjqpr+LDkWjptdGCejs2M9
Mtq3YxRJWsMRM/xJokAIblO3bRmCeOs55/PfmQIxXrBqpMQkyhyzefJihM+rcROf
CgdTQBBIUSLdX/FAKkk=
-----END CERTIFICATE-----
